target datalayout = "e-m:e-p270:32:32-p271:32:32-p272:64:64-i64:64-i128:128-f80:128-n8:16:32:64-S128"
target triple = "x86_64-pc-linux-gnu"

%struct.H5R_ref_priv_t = type { %union.anon, i64, i32, i8, i8, i8 }
%union.anon = type { %struct.H5R_ref_priv_reg_t }
%struct.H5R_ref_priv_reg_t = type { %struct.H5R_ref_priv_obj_t, ptr }
%struct.H5R_ref_priv_obj_t = type { %struct.H5O_token_t, ptr }
%struct.H5O_token_t = type { [16 x i8] }

@H5R_init_g = global i8 0, align 1
@H5_libterm_g = external global i8, align 1
@.str = private unnamed_addr constant [100 x i8] c"generated/home/dtcxzyw/WorkSpace/Projects/compilers/llvm-opt-benchmark/bench/hdf5/hdf5/src/H5Rint.c\00", align 1
@H5E_REFERENCE_g = external global i64, align 8
@H5E_CANTCOPY_g = external global i64, align 8
@__func__.H5R__get_obj_token = private unnamed_addr constant [19 x i8] c"H5R__get_obj_token\00", align 1
@.str.24 = private unnamed_addr constant [16 x i8] c"NULL token size\00", align 1

; Function Attrs: nounwind uwtable
define i32 @H5R__get_obj_token(ptr noundef %0, ptr noundef %1, ptr noundef %2) #0 {
  %4 = alloca ptr, align 8
  %5 = alloca ptr, align 8
  %6 = alloca ptr, align 8
  %7 = alloca i32, align 4
  %8 = alloca i8, align 1
  store ptr %0, ptr %4, align 8, !tbaa !14
  store ptr %1, ptr %5, align 8, !tbaa !9
  store ptr %2, ptr %6, align 8, !tbaa !26
  call void @llvm.lifetime.start.p0(i64 4, ptr %7) #9
  store i32 0, ptr %7, align 4, !tbaa !16
  call void @llvm.lifetime.start.p0(i64 1, ptr %8) #9
  store i8 0, ptr %8, align 1, !tbaa !3
  %9 = load i8, ptr @H5R_init_g, align 1, !tbaa !3, !range !7, !noundef !8
  %10 = trunc i8 %9 to i1
  br i1 %10, label %15, label %11

11:                                               ; preds = %3
  %12 = load i8, ptr @H5_libterm_g, align 1, !tbaa !3, !range !7, !noundef !8
  %13 = trunc i8 %12 to i1
  %14 = xor i1 %13, true
  br label %15

15:                                               ; preds = %11, %3
  %16 = phi i1 [ true, %3 ], [ %14, %11 ]
  %17 = xor i1 %16, true
  %18 = xor i1 %17, true
  %19 = zext i1 %18 to i32
  %20 = sext i32 %19 to i64
  %21 = call i64 @llvm.expect.i64(i64 %20, i64 1)
  %22 = icmp ne i64 %21, 0
  br i1 %22, label %23, label %67

23:                                               ; preds = %15
  %24 = load ptr, ptr %5, align 8, !tbaa !9
  %25 = icmp ne ptr %24, null
  br i1 %25, label %26, label %56

26:                                               ; preds = %23
  %27 = load ptr, ptr %4, align 8, !tbaa !14
  %28 = getelementptr inbounds nuw %struct.H5R_ref_priv_t, ptr %27, i32 0, i32 4
  %29 = load i8, ptr %28, align 1, !tbaa !23
  %30 = zext i8 %29 to i32
  %31 = icmp eq i32 0, %30
  br i1 %31, label %32, label %51

32:                                               ; preds = %26
  br label %33

33:                                               ; preds = %32
  br label %34

34:                                               ; preds = %33
  br label %35

35:                                               ; preds = %34
  %36 = load i64, ptr @H5E_REFERENCE_g, align 8, !tbaa !12
  %37 = load i64, ptr @H5E_CANTCOPY_g, align 8, !tbaa !12
  %38 = call i32 (ptr, ptr, i32, i64, i64, ptr, ...) @H5E_printf_stack(ptr noundef @.str, ptr noundef @__func__.H5R__get_obj_token, i32 noundef 701, i64 noundef %36, i64 noundef %37, ptr noundef @.str.24)
  br label %39

39:                                               ; preds = %35
  br label %40

40:                                               ; preds = %39
  store i8 1, ptr %8, align 1, !tbaa !3
  %41 = load i8, ptr %8, align 1, !tbaa !3, !range !7, !noundef !8
  %42 = trunc i8 %41 to i1
  %43 = zext i1 %42 to i8
  store i8 %43, ptr %8, align 1, !tbaa !3
  br label %44

44:                                               ; preds = %40
  br label %45

45:                                               ; preds = %44
  br label %46

46:                                               ; preds = %45
  store i32 -1, ptr %7, align 4, !tbaa !16
  br label %66

47:                                               ; No predecessors!
  br label %48

48:                                               ; preds = %47
  br label %49

49:                                               ; preds = %48
  br label %50

50:                                               ; preds = %49
  br label %51

51:                                               ; preds = %50, %26
  %52 = load ptr, ptr %5, align 8, !tbaa !9
  %53 = load ptr, ptr %4, align 8, !tbaa !14
  %54 = getelementptr inbounds nuw %struct.H5R_ref_priv_t, ptr %53, i32 0, i32 0
  %55 = getelementptr inbounds nuw %struct.H5R_ref_priv_obj_t, ptr %54, i32 0, i32 0
  call void @llvm.memcpy.p0.p0.i64(ptr align 1 %52, ptr align 8 %55, i64 16, i1 false)
  br label %56

56:                                               ; preds = %51, %23
  %57 = load ptr, ptr %6, align 8, !tbaa !26
  %58 = icmp ne ptr %57, null
  br i1 %58, label %59, label %65

59:                                               ; preds = %56
  %60 = load ptr, ptr %4, align 8, !tbaa !14
  %61 = getelementptr inbounds nuw %struct.H5R_ref_priv_t, ptr %60, i32 0, i32 4
  %62 = load i8, ptr %61, align 1, !tbaa !23
  %63 = zext i8 %62 to i64
  %64 = load ptr, ptr %6, align 8, !tbaa !26
  store i64 %63, ptr %64, align 8, !tbaa !12
  br label %65

65:                                               ; preds = %59, %56
  br label %66

66:                                               ; preds = %65, %46
  br label %67

67:                                               ; preds = %66, %15
  %68 = load i32, ptr %7, align 4, !tbaa !16
  call void @llvm.lifetime.end.p0(i64 1, ptr %8) #9
  call void @llvm.lifetime.end.p0(i64 4, ptr %7) #9
  ret i32 %68
}