; Function Attrs: nounwind uwtable
define range(i32 -1, 1) i32 @H5R__get_obj_token(ptr noundef readonly captures(none) %0, ptr noundef writeonly captures(address_is_null) %1, ptr noundef writeonly captures(address_is_null) %2) local_unnamed_addr #1 {
  %4 = load i8, ptr @H5R_init_g, align 1, !tbaa !3, !range !7, !noundef !8
  %5 = trunc nuw i8 %4 to i1
  %6 = load i8, ptr @H5_libterm_g, align 1, !range !7
  %7 = trunc nuw i8 %6 to i1
  %8 = xor i1 %7, true
  %9 = select i1 %5, i1 true, i1 %8
  br i1 %9, label %10, label %25, !prof !9

10:                                               ; preds = %3
  %.not = icmp eq ptr %1, null
  br i1 %.not, label %20, label %11

11:                                               ; preds = %10
  %12 = getelementptr inbounds nuw i8, ptr %0, i64 45
  %13 = load i8, ptr %12, align 1, !tbaa !16
  %14 = icmp eq i8 %13, 0
  br i1 %14, label %15, label %19

15:                                               ; preds = %11
  %16 = load i64, ptr @H5E_REFERENCE_g, align 8, !tbaa !17
  %17 = load i64, ptr @H5E_CANTCOPY_g, align 8, !tbaa !17
  %18 = tail call i32 (ptr, ptr, i32, i64, i64, ptr, ...) @H5E_printf_stack(ptr noundef nonnull @.str, ptr noundef nonnull @__func__.H5R__get_obj_token, i32 noundef 701, i64 noundef %16, i64 noundef %17, ptr noundef nonnull @.str.24) #15
  br label %25

19:                                               ; preds = %11
  tail call void @llvm.memcpy.p0.p0.i64(ptr noundef nonnull align 1 dereferenceable(16) %1, ptr noundef nonnull align 8 dereferenceable(16) %0, i64 16, i1 false)
  br label %20

20:                                               ; preds = %19, %10
  %.not10 = icmp eq ptr %2, null
  br i1 %.not10, label %25, label %21

21:                                               ; preds = %20
  %22 = getelementptr inbounds nuw i8, ptr %0, i64 45
  %23 = load i8, ptr %22, align 1, !tbaa !16
  %24 = zext i8 %23 to i64
  store i64 %24, ptr %2, align 8, !tbaa !17
  br label %25

25:                                               ; preds = %15, %21, %20, %3
  %.0 = phi i32 [ -1, %15 ], [ 0, %21 ], [ 0, %20 ], [ 0, %3 ]
  ret i32 %.0
}